; Function Attrs: mustprogress uwtable
define noundef i32 @_ZNK13sentencepiece14ModelInterface9PieceToIdESt17basic_string_viewIcSt11char_traitsIcEE(ptr noundef nonnull align 8 dereferenceable(152) %0, i64 %1, ptr %2) unnamed_addr #3 align 2 {
  %4 = alloca %"class.std::basic_string_view", align 8
  store i64 %1, ptr %4, align 8
  %5 = getelementptr inbounds i8, ptr %4, i64 8
  store ptr %2, ptr %5, align 8
  %6 = getelementptr inbounds i8, ptr %0, i64 80
  %7 = call ptr @_ZNKSt10_HashtableISt17basic_string_viewIcSt11char_traitsIcEESt4pairIKS3_iESaIS6_ENSt8__detail10_Select1stESt8equal_toIS3_ESt4hashIS3_ENS8_18_Mod_range_hashingENS8_20_Default_ranged_hashENS8_20_Prime_rehash_policyENS8_17_Hashtable_traitsILb1ELb0ELb1EEEE4findERS5_(ptr noundef nonnull align 8 dereferenceable(56) %6, ptr noundef nonnull align 8 dereferenceable(16) %4)
  %.not = icmp eq ptr %7, null
  br i1 %.not, label %10, label %8

8:                                                ; preds = %3
  %9 = getelementptr inbounds i8, ptr %7, i64 24
  br label %17

10:                                               ; preds = %3
  %11 = getelementptr inbounds i8, ptr %0, i64 24
  %12 = call ptr @_ZNKSt10_HashtableISt17basic_string_viewIcSt11char_traitsIcEESt4pairIKS3_iESaIS6_ENSt8__detail10_Select1stESt8equal_toIS3_ESt4hashIS3_ENS8_18_Mod_range_hashingENS8_20_Default_ranged_hashENS8_20_Prime_rehash_policyENS8_17_Hashtable_traitsILb1ELb0ELb1EEEE4findERS5_(ptr noundef nonnull align 8 dereferenceable(56) %11, ptr noundef nonnull align 8 dereferenceable(16) %4)
  %.not6 = icmp eq ptr %12, null
  br i1 %.not6, label %15, label %13

13:                                               ; preds = %10
  %14 = getelementptr inbounds i8, ptr %12, i64 24
  br label %17

15:                                               ; preds = %10
  %16 = getelementptr inbounds i8, ptr %0, i64 136
  br label %17

17:                                               ; preds = %15, %13, %8
  %.0.in = phi ptr [ %9, %8 ], [ %14, %13 ], [ %16, %15 ]
  %.0 = load i32, ptr %.0.in, align 8
  ret i32 %.0
}